target datalayout = "e-m:e-p270:32:32-p271:32:32-p272:64:64-i64:64-i128:128-f80:128-n8:16:32:64-S128"
target triple = "x86_64-unknown-linux-gnu"

%"class.net::SourceAddressToken" = type { %"class.google::protobuf::MessageLite", %"struct.google::protobuf::internal::ArenaStringPtr", ptr, [1 x i32], i32, %"struct.google::protobuf::internal::ArenaStringPtr", i64, ptr }
%"class.google::protobuf::MessageLite" = type { ptr }
%"struct.google::protobuf::internal::ArenaStringPtr" = type { ptr }

@_ZN6google8protobuf8internal13empty_string_B5cxx11E = external global ptr, align 8

; Function Attrs: mustprogress nounwind uwtable
define linkonce_odr dso_local void @_ZN6google8protobuf8internal14ArenaStringPtr16UnsafeSetDefaultEPKNSt7__cxx1112basic_stringIcSt11char_traitsIcESaIcEEE(ptr noundef nonnull align 8 dereferenceable(8) %this, ptr noundef %default_value) #0 comdat align 2 {
entry:
  %this.addr = alloca ptr, align 8
  %default_value.addr = alloca ptr, align 8
  store ptr %this, ptr %this.addr, align 8
  store ptr %default_value, ptr %default_value.addr, align 8
  %this1 = load ptr, ptr %this.addr, align 8
  %0 = load ptr, ptr %default_value.addr, align 8
  %ptr_ = getelementptr inbounds %"struct.google::protobuf::internal::ArenaStringPtr", ptr %this1, i32 0, i32 0
  store ptr %0, ptr %ptr_, align 8
  ret void
}

; Function Attrs: mustprogress nounwind uwtable
define linkonce_odr dso_local noundef nonnull align 8 dereferenceable(32) ptr @_ZN6google8protobuf8internal27GetEmptyStringAlreadyInitedB5cxx11Ev() #0 comdat {
entry:
  %0 = load ptr, ptr @_ZN6google8protobuf8internal13empty_string_B5cxx11E, align 8
  ret ptr %0
}

; Function Attrs: mustprogress uwtable
define dso_local void @_ZN3net18SourceAddressToken10SharedCtorEv(ptr noundef nonnull align 8 dereferenceable(56) %this) #1 align 2 {
entry:
  %this.addr = alloca ptr, align 8
  store ptr %this, ptr %this.addr, align 8
  %this1 = load ptr, ptr %this.addr, align 8
  %call = call noundef nonnull align 8 dereferenceable(32) ptr @_ZN6google8protobuf8internal14GetEmptyStringB5cxx11Ev()
  %_cached_size_ = getelementptr inbounds %"class.net::SourceAddressToken", ptr %this1, i32 0, i32 4
  store i32 0, ptr %_cached_size_, align 4
  %_unknown_fields_ = getelementptr inbounds %"class.net::SourceAddressToken", ptr %this1, i32 0, i32 1
  %call2 = call noundef nonnull align 8 dereferenceable(32) ptr @_ZN6google8protobuf8internal27GetEmptyStringAlreadyInitedB5cxx11Ev()
  call void @_ZN6google8protobuf8internal14ArenaStringPtr16UnsafeSetDefaultEPKNSt7__cxx1112basic_stringIcSt11char_traitsIcESaIcEEE(ptr noundef nonnull align 8 dereferenceable(8) %_unknown_fields_, ptr noundef %call2)
  %ip_ = getelementptr inbounds %"class.net::SourceAddressToken", ptr %this1, i32 0, i32 5
  %call3 = call noundef nonnull align 8 dereferenceable(32) ptr @_ZN6google8protobuf8internal27GetEmptyStringAlreadyInitedB5cxx11Ev()
  call void @_ZN6google8protobuf8internal14ArenaStringPtr16UnsafeSetDefaultEPKNSt7__cxx1112basic_stringIcSt11char_traitsIcESaIcEEE(ptr noundef nonnull align 8 dereferenceable(8) %ip_, ptr noundef %call3)
  %timestamp_ = getelementptr inbounds %"class.net::SourceAddressToken", ptr %this1, i32 0, i32 6
  store i64 0, ptr %timestamp_, align 8
  %cached_network_parameters_ = getelementptr inbounds %"class.net::SourceAddressToken", ptr %this1, i32 0, i32 7
  store ptr null, ptr %cached_network_parameters_, align 8
  %_has_bits_ = getelementptr inbounds %"class.net::SourceAddressToken", ptr %this1, i32 0, i32 3
  %arraydecay = getelementptr inbounds [1 x i32], ptr %_has_bits_, i64 0, i64 0
  call void @llvm.memset.p0.i64(ptr align 8 %arraydecay, i8 0, i64 4, i1 false)
  ret void
}